; Function Attrs: mustprogress uwtable
define void @_ZN26MainWindowPreferencesFrame38on_foStyleSpecifiedLineEdit_textEditedERK7QString(ptr nocapture noundef nonnull readonly align 8 dereferenceable(144) %0, ptr noundef nonnull align 8 dereferenceable(24) %1) local_unnamed_addr #0 align 2 personality ptr @__gxx_personality_v0 {
  %3 = alloca %"class.std::__cxx11::basic_string", align 8
  %4 = getelementptr inbounds i8, ptr %0, i64 80
  %5 = load ptr, ptr %4, align 8
  call void @_ZNK7QString11toStdStringB5cxx11Ev(ptr dead_on_unwind nonnull writable sret(%"class.std::__cxx11::basic_string") align 8 %3, ptr noundef nonnull align 8 dereferenceable(24) %1)
  %6 = call noundef ptr @_ZNKSt7__cxx1112basic_stringIcSt11char_traitsIcESaIcEE5c_strEv(ptr noundef nonnull align 8 dereferenceable(32) %3) #16
  %7 = invoke i32 @prefs_set_string_value(ptr noundef %5, ptr noundef %6, i32 noundef 1)
          to label %8 unwind label %13

8:                                                ; preds = %2
  call void @_ZNSt7__cxx1112basic_stringIcSt11char_traitsIcESaIcEED1Ev(ptr noundef nonnull align 8 dereferenceable(32) %3) #16
  %9 = getelementptr inbounds i8, ptr %0, i64 40
  %10 = load ptr, ptr %9, align 8
  %11 = getelementptr inbounds i8, ptr %10, i64 32
  %12 = load ptr, ptr %11, align 8
  call void @_ZN15QAbstractButton10setCheckedEb(ptr noundef nonnull align 8 dereferenceable(40) %12, i1 noundef zeroext true)
  ret void

13:                                               ; preds = %2
  %14 = landingpad { ptr, i32 }
          cleanup
  call void @_ZNSt7__cxx1112basic_stringIcSt11char_traitsIcESaIcEED1Ev(ptr noundef nonnull align 8 dereferenceable(32) %3) #16
  resume { ptr, i32 } %14
}